target datalayout = "e-m:e-p270:32:32-p271:32:32-p272:64:64-i64:64-i128:128-f80:128-n8:16:32:64-S128"
target triple = "x86_64-pc-linux-gnu"

; Function Attrs: nounwind uwtable
define dso_local i64 @RequestXLogSwitch(i1 noundef zeroext %0) #0 {
  %2 = alloca i8, align 1
  %3 = alloca i64, align 8
  %4 = zext i1 %0 to i8
  store i8 %4, ptr %2, align 1
  call void @llvm.lifetime.start.p0(i64 8, ptr %3) #16
  call void @XLogBeginInsert()
  %5 = load i8, ptr %2, align 1, !range !4, !noundef !5
  %6 = trunc i8 %5 to i1
  br i1 %6, label %7, label %8

7:                                                ; preds = %1
  call void @XLogSetRecordFlags(i8 noundef zeroext 2)
  br label %8

8:                                                ; preds = %7, %1
  %9 = call i64 @XLogInsert(i8 noundef zeroext 0, i8 noundef zeroext 64)
  store i64 %9, ptr %3, align 8
  %10 = load i64, ptr %3, align 8
  call void @llvm.lifetime.end.p0(i64 8, ptr %3) #16
  ret i64 %10
}