; Function Attrs: nounwind uwtable
define dso_local i64 @RequestXLogSwitch(i1 noundef zeroext %0) local_unnamed_addr #0 {
  tail call void @XLogBeginInsert() #26
  br i1 %0, label %2, label %3

2:                                                ; preds = %1
  tail call void @XLogSetRecordFlags(i8 noundef zeroext 2) #26
  br label %3

3:                                                ; preds = %2, %1
  %4 = tail call i64 @XLogInsert(i8 noundef zeroext 0, i8 noundef zeroext 64) #26
  ret i64 %4
}